target datalayout = "e-m:e-p270:32:32-p271:32:32-p272:64:64-i64:64-i128:128-f80:128-n8:16:32:64-S128"
target triple = "x86_64-pc-linux-gnu"

%class.QPointF = type { double, double }
%class.WirelessTimeline = type { %class.QWidget, double, double, double, ptr, [64 x [3 x float]], i64, i64, i32, ptr, ptr, ptr, ptr }
%class.QWidget = type { %class.QObject, %class.QPaintDevice.base, ptr }
%class.QObject = type { ptr, %class.QScopedPointer }
%class.QScopedPointer = type { ptr }
%class.QPaintDevice.base = type <{ ptr, i16 }>
%class.QPointerEvent = type { %class.QInputEvent, %class.QList }
%class.QInputEvent = type { %class.QEvent, ptr, i64, %class.QFlags, i32 }
%class.QEvent = type { ptr, i16, i8, i8, i8, i8, i16 }
%class.QFlags = type { i32 }
%class.QList = type { %struct.QArrayDataPointer }
%struct.QArrayDataPointer = type { ptr, ptr, i64 }
%"class.QList<QEventPoint>::const_iterator" = type { ptr }

; Function Attrs: mustprogress nounwind uwtable
define linkonce_odr noundef ptr @_ZNK17QArrayDataPointerI11QEventPointE4dataEv(ptr noundef nonnull align 8 dereferenceable(24) %0) #1 comdat align 2 {
  %2 = alloca ptr, align 8
  store ptr %0, ptr %2, align 8
  %3 = load ptr, ptr %2, align 8
  %4 = getelementptr inbounds %struct.QArrayDataPointer, ptr %3, i32 0, i32 1
  %5 = load ptr, ptr %4, align 8
  ret ptr %5
}

; Function Attrs: mustprogress nounwind uwtable
define linkonce_odr void @_ZN5QListI11QEventPointE14const_iteratorC2EPKS0_(ptr noundef nonnull align 8 dereferenceable(8) %0, ptr noundef %1) unnamed_addr #1 comdat align 2 {
  %3 = alloca ptr, align 8
  %4 = alloca ptr, align 8
  store ptr %0, ptr %3, align 8
  store ptr %1, ptr %4, align 8
  %5 = load ptr, ptr %3, align 8
  %6 = getelementptr inbounds %"class.QList<QEventPoint>::const_iterator", ptr %5, i32 0, i32 0
  %7 = load ptr, ptr %4, align 8
  store ptr %7, ptr %6, align 8
  ret void
}

; Function Attrs: mustprogress nounwind uwtable
define linkonce_odr noundef ptr @_ZNK17QArrayDataPointerI11QEventPointE10constBeginEv(ptr noundef nonnull align 8 dereferenceable(24) %0) #1 comdat align 2 {
  %2 = alloca ptr, align 8
  store ptr %0, ptr %2, align 8
  %3 = load ptr, ptr %2, align 8
  %4 = call noundef ptr @_ZNK17QArrayDataPointerI11QEventPointE4dataEv(ptr noundef nonnull align 8 dereferenceable(24) %3) #13
  ret ptr %4
}

; Function Attrs: mustprogress nounwind uwtable
define linkonce_odr noundef ptr @_ZNK17QArrayDataPointerI11QEventPointEptEv(ptr noundef nonnull align 8 dereferenceable(24) %0) #1 comdat align 2 {
  %2 = alloca ptr, align 8
  store ptr %0, ptr %2, align 8
  %3 = load ptr, ptr %2, align 8
  ret ptr %3
}

; Function Attrs: noreturn nounwind uwtable
define linkonce_odr hidden void @__clang_call_terminate(ptr noundef %0) #7 comdat {
  %2 = call ptr @__cxa_begin_catch(ptr %0) #13
  call void @_ZSt9terminatev() #20
  unreachable
}

; Function Attrs: mustprogress nounwind uwtable
define linkonce_odr noundef nonnull align 8 dereferenceable(8) ptr @_ZNK5QListI11QEventPointE14const_iteratordeEv(ptr noundef nonnull align 8 dereferenceable(8) %0) #1 comdat align 2 {
  %2 = alloca ptr, align 8
  store ptr %0, ptr %2, align 8
  %3 = load ptr, ptr %2, align 8
  %4 = getelementptr inbounds %"class.QList<QEventPoint>::const_iterator", ptr %3, i32 0, i32 0
  %5 = load ptr, ptr %4, align 8
  ret ptr %5
}

; Function Attrs: mustprogress nounwind uwtable
define linkonce_odr ptr @_ZNK5QListI11QEventPointE5beginEv(ptr noundef nonnull align 8 dereferenceable(24) %0) #1 comdat align 2 personality ptr @__gxx_personality_v0 {
  %2 = alloca %"class.QList<QEventPoint>::const_iterator", align 8
  %3 = alloca ptr, align 8
  store ptr %0, ptr %3, align 8
  %4 = load ptr, ptr %3, align 8
  %5 = getelementptr inbounds %class.QList, ptr %4, i32 0, i32 0
  %6 = call noundef ptr @_ZNK17QArrayDataPointerI11QEventPointEptEv(ptr noundef nonnull align 8 dereferenceable(24) %5) #13
  %7 = call noundef ptr @_ZNK17QArrayDataPointerI11QEventPointE10constBeginEv(ptr noundef nonnull align 8 dereferenceable(24) %6) #13
  invoke void @_ZN5QListI11QEventPointE14const_iteratorC2EPKS0_(ptr noundef nonnull align 8 dereferenceable(8) %2, ptr noundef %7)
          to label %8 unwind label %11

8:                                                ; preds = %1
  %9 = getelementptr inbounds %"class.QList<QEventPoint>::const_iterator", ptr %2, i32 0, i32 0
  %10 = load ptr, ptr %9, align 8
  ret ptr %10

11:                                               ; preds = %1
  %12 = landingpad { ptr, i32 }
          catch ptr null
  %13 = extractvalue { ptr, i32 } %12, 0
  call void @__clang_call_terminate(ptr %13) #20
  unreachable
}

; Function Attrs: mustprogress nounwind uwtable
define linkonce_odr noundef nonnull align 8 dereferenceable(8) ptr @_ZNK5QListI11QEventPointE5firstEv(ptr noundef nonnull align 8 dereferenceable(24) %0) #1 comdat align 2 personality ptr @__gxx_personality_v0 {
  %2 = alloca ptr, align 8
  %3 = alloca %"class.QList<QEventPoint>::const_iterator", align 8
  store ptr %0, ptr %2, align 8
  %4 = load ptr, ptr %2, align 8
  %5 = call ptr @_ZNK5QListI11QEventPointE5beginEv(ptr noundef nonnull align 8 dereferenceable(24) %4) #13
  %6 = getelementptr inbounds %"class.QList<QEventPoint>::const_iterator", ptr %3, i32 0, i32 0
  store ptr %5, ptr %6, align 8
  %7 = invoke noundef nonnull align 8 dereferenceable(8) ptr @_ZNK5QListI11QEventPointE14const_iteratordeEv(ptr noundef nonnull align 8 dereferenceable(8) %3)
          to label %8 unwind label %9

8:                                                ; preds = %1
  ret ptr %7

9:                                                ; preds = %1
  %10 = landingpad { ptr, i32 }
          catch ptr null
  %11 = extractvalue { ptr, i32 } %10, 0
  call void @__clang_call_terminate(ptr %11) #20
  unreachable
}

; Function Attrs: mustprogress nounwind uwtable
define linkonce_odr noundef double @_ZNK7QPointF1xEv(ptr noundef nonnull align 8 dereferenceable(16) %0) #1 comdat align 2 {
  %2 = alloca ptr, align 8
  store ptr %0, ptr %2, align 8
  %3 = load ptr, ptr %2, align 8
  %4 = getelementptr inbounds %class.QPointF, ptr %3, i32 0, i32 0
  %5 = load double, ptr %4, align 8
  ret double %5
}

; Function Attrs: mustprogress uwtable
define linkonce_odr { double, double } @_ZNK17QSinglePointEvent8positionEv(ptr noundef nonnull align 8 dereferenceable(80) %0) #0 comdat align 2 {
  %2 = alloca %class.QPointF, align 8
  %3 = alloca ptr, align 8
  store ptr %0, ptr %3, align 8
  %4 = load ptr, ptr %3, align 8
  %5 = getelementptr inbounds %class.QPointerEvent, ptr %4, i32 0, i32 1
  %6 = call noundef nonnull align 8 dereferenceable(8) ptr @_ZNK5QListI11QEventPointE5firstEv(ptr noundef nonnull align 8 dereferenceable(24) %5) #13
  %7 = call { double, double } @_ZNK11QEventPoint8positionEv(ptr noundef nonnull align 8 dereferenceable(8) %6)
  %8 = getelementptr inbounds { double, double }, ptr %2, i32 0, i32 0
  %9 = extractvalue { double, double } %7, 0
  store double %9, ptr %8, align 8
  %10 = getelementptr inbounds { double, double }, ptr %2, i32 0, i32 1
  %11 = extractvalue { double, double } %7, 1
  store double %11, ptr %10, align 8
  %12 = load { double, double }, ptr %2, align 8
  ret { double, double } %12
}

; Function Attrs: mustprogress uwtable
define void @_ZN16WirelessTimeline15mousePressEventEP11QMouseEvent(ptr noundef nonnull align 8 dereferenceable(896) %0, ptr noundef %1) unnamed_addr #0 align 2 {
  %3 = alloca ptr, align 8
  %4 = alloca ptr, align 8
  %5 = alloca %class.QPointF, align 8
  store ptr %0, ptr %3, align 8
  store ptr %1, ptr %4, align 8
  %6 = load ptr, ptr %3, align 8
  %7 = load ptr, ptr %4, align 8
  %8 = call { double, double } @_ZNK17QSinglePointEvent8positionEv(ptr noundef nonnull align 8 dereferenceable(80) %7)
  %9 = getelementptr inbounds { double, double }, ptr %5, i32 0, i32 0
  %10 = extractvalue { double, double } %8, 0
  store double %10, ptr %9, align 8
  %11 = getelementptr inbounds { double, double }, ptr %5, i32 0, i32 1
  %12 = extractvalue { double, double } %8, 1
  store double %12, ptr %11, align 8
  %13 = call noundef double @_ZNK7QPointF1xEv(ptr noundef nonnull align 8 dereferenceable(16) %5) #13
  %14 = getelementptr inbounds %class.WirelessTimeline, ptr %6, i32 0, i32 3
  store double %13, ptr %14, align 8
  %15 = getelementptr inbounds %class.WirelessTimeline, ptr %6, i32 0, i32 2
  store double %13, ptr %15, align 8
  ret void
}