; Function Attrs: mustprogress uwtable
define void @_ZN16WirelessTimeline15mousePressEventEP11QMouseEvent(ptr nocapture noundef nonnull writeonly align 8 dereferenceable(896) %0, ptr nocapture noundef readonly %1) unnamed_addr #0 align 2 personality ptr @__gxx_personality_v0 {
  %3 = getelementptr inbounds i8, ptr %1, i64 48
  %4 = load ptr, ptr %3, align 8
  %5 = tail call { double, double } @_ZNK11QEventPoint8positionEv(ptr noundef nonnull align 8 dereferenceable(8) %4)
  %6 = extractvalue { double, double } %5, 0
  %7 = getelementptr inbounds i8, ptr %0, i64 56
  store double %6, ptr %7, align 8
  %8 = getelementptr inbounds i8, ptr %0, i64 48
  store double %6, ptr %8, align 8
  ret void
}